CCS PCM C Compiler, Version 5.015, 5967               13-Ara-20 13:48

               Filename:   C:\Users\mesut\Desktop\RF Presentation\PIC 433MHz\code\verici.lst

               ROM used:   196 words (10%)
                           Largest free fragment is 1852
               RAM used:   7 (3%) at main() level
                           12 (5%) worst case
               Stack used: 1 locations
               Stack size: 8

*
0000:  MOVLW  00
0001:  MOVWF  0A
0002:  GOTO   065
0003:  NOP
....................  #include <16F628A.h>  
.................... //////////// Standard Header file for the PIC16F628A device //////////////// 
.................... /////////////////////////////////////////////////////////////////////////// 
.................... ////        (C) Copyright 1996, 2013 Custom Computer Services          //// 
.................... //// This source code may only be used by licensed users of the CCS C  //// 
.................... //// compiler.  This source code may only be distributed to other      //// 
.................... //// licensed users of the CCS C compiler.  No other use, reproduction //// 
.................... //// or distribution is permitted without written permission.          //// 
.................... //// Derivative programs created using this software in object code    //// 
.................... //// form are not restricted in any way.                               //// 
.................... /////////////////////////////////////////////////////////////////////////// 
.................... #device PIC16F628A 
....................  
.................... #list 
....................  
....................  #fuses HS,NOWDT,NOPROTECT, NOMCLR,NOLVP,NOPUT,NOCPD  
....................  #use delay (clock=16000000)  
*
0043:  MOVLW  23
0044:  MOVWF  04
0045:  BCF    03.7
0046:  MOVF   00,W
0047:  BTFSC  03.2
0048:  GOTO   057
0049:  MOVLW  05
004A:  MOVWF  78
004B:  CLRF   77
004C:  DECFSZ 77,F
004D:  GOTO   04C
004E:  DECFSZ 78,F
004F:  GOTO   04B
0050:  MOVLW  2E
0051:  MOVWF  77
0052:  DECFSZ 77,F
0053:  GOTO   052
0054:  GOTO   055
0055:  DECFSZ 00,F
0056:  GOTO   049
0057:  RETURN
....................  #use rs232(baud=1200, xmit=PIN_B2, rcv=PIN_B1,stop=1, parity=N)  
....................   
....................  #define BUTTON_1 pin_B3  
....................  #define  BUTTON_2 pin_A3 
....................  #define led pin_b0 
....................  
....................  int previousValueOfButton_1=0; 
....................  int previousValueOfButton_2=0; 
....................   
....................  void turnOffLED(); 
....................   
....................  void turnOnLED(); 
....................   
....................  void preambleAndSynchronization(); 
....................   
....................  void sendFlagData(); 
....................   
....................  int readButtonOne(); 
....................   
....................  int readButtonTwo(); 
....................   
....................  
....................  void main ( ) 
*
0065:  MOVF   03,W
0066:  ANDLW  1F
0067:  MOVWF  03
0068:  MOVLW  CF
0069:  BSF    03.5
006A:  MOVWF  19
006B:  MOVLW  A2
006C:  MOVWF  18
006D:  MOVLW  90
006E:  BCF    03.5
006F:  MOVWF  18
0070:  CLRF   20
0071:  CLRF   21
0072:  MOVLW  07
0073:  MOVWF  1F
0074:  BCF    03.7
....................  { 
....................   output_b(0x00);//portb sýfýrlandý 
0075:  BSF    03.5
0076:  CLRF   06
0077:  BCF    03.5
0078:  CLRF   06
....................   output_a(0x00);//porta sýfýrlaandý 
0079:  BSF    03.5
007A:  CLRF   05
007B:  BCF    03.5
007C:  CLRF   05
....................   
....................   setup_timer_2(T2_DISABLED,0,1);  
007D:  MOVLW  00
007E:  MOVWF  78
007F:  MOVWF  12
0080:  MOVLW  00
0081:  BSF    03.5
0082:  MOVWF  12
....................   setup_CCP1(CCP_OFF);  
0083:  MOVLW  F0
0084:  BCF    03.5
0085:  ANDWF  17,F
....................   set_tris_b(0x02);  
0086:  MOVLW  02
0087:  BSF    03.5
0088:  MOVWF  06
....................   set_tris_a(0x08);  
0089:  MOVLW  08
008A:  MOVWF  05
....................  
....................   while(1)  
....................     { 
....................         int result=readButtonOne(); 
008B:  BCF    03.5
008C:  CALL   004
008D:  MOVF   78,W
008E:  MOVWF  22
....................         if( result &&    result != previousValueOfButton_1) 
008F:  MOVF   22,F
0090:  BTFSC  03.2
0091:  GOTO   0A3
0092:  MOVF   20,W
0093:  SUBWF  22,W
0094:  BTFSC  03.2
0095:  GOTO   0A3
....................             { 
....................               previousValueOfButton_1=result; 
0096:  MOVF   22,W
0097:  MOVWF  20
....................               preambleAndSynchronization(); 
0098:  CALL   00C
....................               turnOnLED(); 
0099:  CALL   039
....................               sendFlagData();    
009A:  CALL   03E
....................               putc('A') ; 
009B:  MOVLW  41
009C:  BTFSS  0C.4
009D:  GOTO   09C
009E:  MOVWF  19
....................               delay_ms(100); 
009F:  MOVLW  64
00A0:  MOVWF  23
00A1:  CALL   043
....................               turnOffLED(); 
00A2:  CALL   058
....................             } 
....................     
....................         result=readButtonTwo(); 
00A3:  CALL   05D
00A4:  MOVF   78,W
00A5:  MOVWF  22
....................         if( result &&    result != previousValueOfButton_2) 
00A6:  MOVF   22,F
00A7:  BTFSC  03.2
00A8:  GOTO   0BA
00A9:  MOVF   21,W
00AA:  SUBWF  22,W
00AB:  BTFSC  03.2
00AC:  GOTO   0BA
....................             { 
....................               previousValueOfButton_2=result; 
00AD:  MOVF   22,W
00AE:  MOVWF  21
....................               preambleAndSynchronization(); 
00AF:  CALL   00C
....................               turnOnLED(); 
00B0:  CALL   039
....................               sendFlagData();    
00B1:  CALL   03E
....................               putc('B') ; 
00B2:  MOVLW  42
00B3:  BTFSS  0C.4
00B4:  GOTO   0B3
00B5:  MOVWF  19
....................               delay_ms(100); 
00B6:  MOVLW  64
00B7:  MOVWF  23
00B8:  CALL   043
....................               turnOffLED(); 
00B9:  CALL   058
....................              } 
....................     
....................     
....................          if(!readButtonOne()) 
00BA:  CALL   004
00BB:  MOVF   78,F
00BC:  BTFSC  03.2
....................              { 
....................               previousValueOfButton_2=~previousValueOfButton_2; 
00BD:  COMF   21,F
....................              } 
....................          if(!readButtonTwo()) 
00BE:  CALL   05D
00BF:  MOVF   78,F
00C0:  BTFSC  03.2
....................              { 
....................               previousValueOfButton_1=~previousValueOfButton_1; 
00C1:  COMF   20,F
....................              } 
00C2:  GOTO   08C
....................      } 
....................  } 
....................   
00C3:  SLEEP
....................   
....................  
....................  
.................... void preambleAndSynchronization() 
.................... { 
....................    {for(int i=0;i<5;i++) {putc(0x55);}} //ASCII "U" 
*
000C:  CLRF   23
000D:  MOVF   23,W
000E:  SUBLW  04
000F:  BTFSS  03.0
0010:  GOTO   017
0011:  MOVLW  55
0012:  BTFSS  0C.4
0013:  GOTO   012
0014:  MOVWF  19
0015:  INCF   23,F
0016:  GOTO   00D
....................     
....................    {for(int i=0;i<5;i++) {putc(0x00);}} // no equivalent 
0017:  CLRF   24
0018:  MOVF   24,W
0019:  SUBLW  04
001A:  BTFSS  03.0
001B:  GOTO   022
001C:  MOVLW  00
001D:  BTFSS  0C.4
001E:  GOTO   01D
001F:  MOVWF  19
0020:  INCF   24,F
0021:  GOTO   018
....................    
....................    {for(int i=0;i<5;i++) {putc(0x55);}} //ASCII "U" 
0022:  CLRF   25
0023:  MOVF   25,W
0024:  SUBLW  04
0025:  BTFSS  03.0
0026:  GOTO   02D
0027:  MOVLW  55
0028:  BTFSS  0C.4
0029:  GOTO   028
002A:  MOVWF  19
002B:  INCF   25,F
002C:  GOTO   023
....................           
....................    {for(int i=0;i<5;i++) { putc('M');}} //ASCII "M".also can be  putc(0x4d); 
002D:  CLRF   26
002E:  MOVF   26,W
002F:  SUBLW  04
0030:  BTFSS  03.0
0031:  GOTO   038
0032:  MOVLW  4D
0033:  BTFSS  0C.4
0034:  GOTO   033
0035:  MOVWF  19
0036:  INCF   26,F
0037:  GOTO   02E
0038:  RETURN
.................... } 
....................  
....................  void turnOffLED() 
....................  { 
....................   output_low(led); 
*
0058:  BSF    03.5
0059:  BCF    06.0
005A:  BCF    03.5
005B:  BCF    06.0
005C:  RETURN
....................  } 
....................   
....................  void turnOnLED() 
....................  { 
....................   output_high(led); 
*
0039:  BSF    03.5
003A:  BCF    06.0
003B:  BCF    03.5
003C:  BSF    06.0
003D:  RETURN
....................  } 
....................   
....................  void sendFlagData() 
....................  { 
....................    putc('S');  
003E:  MOVLW  53
003F:  BTFSS  0C.4
0040:  GOTO   03F
0041:  MOVWF  19
0042:  RETURN
....................  } 
....................   
....................  int readButtonOne() 
....................  { 
....................     return input(BUTTON_1); 
*
0004:  BSF    03.5
0005:  BSF    06.3
0006:  MOVLW  00
0007:  BCF    03.5
0008:  BTFSC  06.3
0009:  MOVLW  01
000A:  MOVWF  78
000B:  RETURN
....................  } 
....................   
....................   
....................   int readButtonTwo() 
....................  { 
....................     return input(BUTTON_2); 
*
005D:  BSF    03.5
005E:  BSF    05.3
005F:  MOVLW  00
0060:  BCF    03.5
0061:  BTFSC  05.3
0062:  MOVLW  01
0063:  MOVWF  78
0064:  RETURN
....................  } 

Configuration Fuses:
   Word  1: 3F4A   NOWDT NOPUT HS NOMCLR BROWNOUT NOLVP NOCPD NOPROTECT
